; Function Attrs: mustprogress nofree norecurse nounwind willreturn memory(readwrite, inaccessiblemem: none) uwtable
define dso_local void @_ZN4base5debug21ThreadActivityTracker11PopActivityEv(ptr nocapture noundef nonnull readonly align 8 dereferenceable(30) %this) local_unnamed_addr #6 align 2 personality ptr @__gxx_personality_v0 {
if.end:
  %header_ = getelementptr inbounds i8, ptr %this, i64 8
  %0 = load ptr, ptr %header_, align 8
  %current_depth = getelementptr inbounds i8, ptr %0, i64 44
  %1 = atomicrmw sub ptr %current_depth, i32 1 monotonic, align 4
  %2 = load ptr, ptr %header_, align 8
  %stack_unchanged = getelementptr inbounds i8, ptr %2, i64 48
  store atomic i32 0, ptr %stack_unchanged release, align 4
  ret void
}